; Function Attrs: nounwind uwtable
define dso_local void @DeleteSharedComments(i32 noundef %0, i32 noundef %1) local_unnamed_addr #0 {
  %3 = alloca [2 x %struct.ScanKeyData], align 16
  call void @llvm.lifetime.start.p0(i64 144, ptr nonnull %3) #6
  %4 = zext i32 %0 to i64
  call void @ScanKeyInit(ptr noundef nonnull %3, i16 noundef signext 1, i16 noundef zeroext 3, i32 noundef 184, i64 noundef %4) #6
  %5 = getelementptr inbounds nuw i8, ptr %3, i64 72
  %6 = zext i32 %1 to i64
  call void @ScanKeyInit(ptr noundef nonnull %5, i16 noundef signext 2, i16 noundef zeroext 3, i32 noundef 184, i64 noundef %6) #6
  %7 = call ptr @table_open(i32 noundef 2396, i32 noundef 3) #6
  %8 = call ptr @systable_beginscan(ptr noundef %7, i32 noundef 2397, i1 noundef zeroext true, ptr noundef null, i32 noundef 2, ptr noundef nonnull %3) #6
  %9 = call ptr @systable_getnext(ptr noundef %8) #6
  %.not7 = icmp eq ptr %9, null
  br i1 %.not7, label %._crit_edge, label %.lr.ph

.lr.ph:                                           ; preds = %2, %.lr.ph
  %10 = phi ptr [ %12, %.lr.ph ], [ %9, %2 ]
  %11 = getelementptr inbounds nuw i8, ptr %10, i64 4
  call void @CatalogTupleDelete(ptr noundef %7, ptr noundef nonnull %11) #6
  %12 = call ptr @systable_getnext(ptr noundef %8) #6
  %.not = icmp eq ptr %12, null
  br i1 %.not, label %._crit_edge, label %.lr.ph, !llvm.loop !6

._crit_edge:                                      ; preds = %.lr.ph, %2
  call void @systable_endscan(ptr noundef %8) #6
  call void @table_close(ptr noundef %7, i32 noundef 3) #6
  call void @llvm.lifetime.end.p0(i64 144, ptr nonnull %3) #6
  ret void
}